target datalayout = "e-m:e-p270:32:32-p271:32:32-p272:64:64-i64:64-i128:128-f80:128-n8:16:32:64-S128"
target triple = "x86_64-unknown-linux-gnu"

%"class.boost::detail::shared_count" = type { ptr }
%"class.QuantLib::Handle" = type { %"class.boost::shared_ptr.50" }
%"class.boost::shared_ptr.50" = type { ptr, %"class.boost::detail::shared_count" }
%"class.boost::detail::sp_counted_base" = type { ptr, i32, i32 }

; Function Attrs: inlinehint mustprogress nounwind uwtable
define linkonce_odr void @_ZN5boost6detail16atomic_incrementEPj(ptr noundef %pw) #5 comdat {
entry:
  %pw.addr = alloca ptr, align 8
  %.atomictmp = alloca i32, align 4
  %atomic-temp = alloca i32, align 4
  store ptr %pw, ptr %pw.addr, align 8, !tbaa !3
  %0 = load ptr, ptr %pw.addr, align 8, !tbaa !3
  store i32 1, ptr %.atomictmp, align 4, !tbaa !32
  %1 = load i32, ptr %.atomictmp, align 4
  %2 = atomicrmw add ptr %0, i32 %1 monotonic, align 4
  store i32 %2, ptr %atomic-temp, align 4
  ret void
}

; Function Attrs: mustprogress uwtable
define linkonce_odr void @_ZN5boost6detail15sp_counted_base12add_ref_copyEv(ptr noundef nonnull align 8 dereferenceable(16) %this) #2 comdat align 2 {
entry:
  %this.addr = alloca ptr, align 8
  store ptr %this, ptr %this.addr, align 8, !tbaa !3
  %this1 = load ptr, ptr %this.addr, align 8
  %use_count_ = getelementptr inbounds nuw %"class.boost::detail::sp_counted_base", ptr %this1, i32 0, i32 1
  call void @_ZN5boost6detail16atomic_incrementEPj(ptr noundef %use_count_)
  ret void
}

; Function Attrs: mustprogress nounwind uwtable
define linkonce_odr void @_ZN5boost6detail12shared_countC2ERKS1_(ptr noundef nonnull align 8 dereferenceable(8) %this, ptr noundef nonnull align 8 dereferenceable(8) %r) unnamed_addr #1 comdat align 2 personality ptr @__gxx_personality_v0 {
entry:
  %this.addr = alloca ptr, align 8
  %r.addr = alloca ptr, align 8
  store ptr %this, ptr %this.addr, align 8, !tbaa !3
  store ptr %r, ptr %r.addr, align 8, !tbaa !3
  %this1 = load ptr, ptr %this.addr, align 8
  %pi_ = getelementptr inbounds nuw %"class.boost::detail::shared_count", ptr %this1, i32 0, i32 0
  %0 = load ptr, ptr %r.addr, align 8, !tbaa !3
  %pi_2 = getelementptr inbounds nuw %"class.boost::detail::shared_count", ptr %0, i32 0, i32 0
  %1 = load ptr, ptr %pi_2, align 8, !tbaa !204
  store ptr %1, ptr %pi_, align 8, !tbaa !204
  %pi_3 = getelementptr inbounds nuw %"class.boost::detail::shared_count", ptr %this1, i32 0, i32 0
  %2 = load ptr, ptr %pi_3, align 8, !tbaa !204
  %cmp = icmp ne ptr %2, null
  br i1 %cmp, label %if.then, label %if.end

if.then:                                          ; preds = %entry
  %pi_4 = getelementptr inbounds nuw %"class.boost::detail::shared_count", ptr %this1, i32 0, i32 0
  %3 = load ptr, ptr %pi_4, align 8, !tbaa !204
  invoke void @_ZN5boost6detail15sp_counted_base12add_ref_copyEv(ptr noundef nonnull align 8 dereferenceable(16) %3)
          to label %invoke.cont unwind label %terminate.lpad

invoke.cont:                                      ; preds = %if.then
  br label %if.end

if.end:                                           ; preds = %invoke.cont, %entry
  ret void

terminate.lpad:                                   ; preds = %if.then
  %4 = landingpad { ptr, i32 }
          catch ptr null
  %5 = extractvalue { ptr, i32 } %4, 0
  call void @__clang_call_terminate(ptr %5) #24
  unreachable
}

; Function Attrs: mustprogress nounwind uwtable
define linkonce_odr void @_ZN5boost10shared_ptrIN8QuantLib6HandleINS1_5QuoteEE4LinkEEC2ERKS6_(ptr noundef nonnull align 8 dereferenceable(16) %this, ptr noundef nonnull align 8 dereferenceable(16) %r) unnamed_addr #1 comdat align 2 {
entry:
  %this.addr = alloca ptr, align 8
  %r.addr = alloca ptr, align 8
  store ptr %this, ptr %this.addr, align 8, !tbaa !3
  store ptr %r, ptr %r.addr, align 8, !tbaa !3
  %this1 = load ptr, ptr %this.addr, align 8
  %px = getelementptr inbounds nuw %"class.boost::shared_ptr.50", ptr %this1, i32 0, i32 0
  %0 = load ptr, ptr %r.addr, align 8, !tbaa !3
  %px2 = getelementptr inbounds nuw %"class.boost::shared_ptr.50", ptr %0, i32 0, i32 0
  %1 = load ptr, ptr %px2, align 8, !tbaa !206
  store ptr %1, ptr %px, align 8, !tbaa !206
  %pn = getelementptr inbounds nuw %"class.boost::shared_ptr.50", ptr %this1, i32 0, i32 1
  %2 = load ptr, ptr %r.addr, align 8, !tbaa !3
  %pn3 = getelementptr inbounds nuw %"class.boost::shared_ptr.50", ptr %2, i32 0, i32 1
  call void @_ZN5boost6detail12shared_countC2ERKS1_(ptr noundef nonnull align 8 dereferenceable(8) %pn, ptr noundef nonnull align 8 dereferenceable(8) %pn3) #18
  ret void
}

; Function Attrs: inlinehint mustprogress nounwind uwtable
define linkonce_odr void @_ZN8QuantLib6HandleINS_5QuoteEEC2ERKS2_(ptr noundef nonnull align 8 dereferenceable(16) %this, ptr noundef nonnull align 8 dereferenceable(16) %0) unnamed_addr #5 comdat align 2 {
entry:
  %this.addr = alloca ptr, align 8
  %.addr = alloca ptr, align 8
  store ptr %this, ptr %this.addr, align 8, !tbaa !3
  store ptr %0, ptr %.addr, align 8, !tbaa !3
  %this1 = load ptr, ptr %this.addr, align 8
  %link_ = getelementptr inbounds nuw %"class.QuantLib::Handle", ptr %this1, i32 0, i32 0
  %1 = load ptr, ptr %.addr, align 8, !tbaa !3
  %link_2 = getelementptr inbounds nuw %"class.QuantLib::Handle", ptr %1, i32 0, i32 0
  call void @_ZN5boost10shared_ptrIN8QuantLib6HandleINS1_5QuoteEE4LinkEEC2ERKS6_(ptr noundef nonnull align 8 dereferenceable(16) %link_, ptr noundef nonnull align 8 dereferenceable(16) %link_2) #18
  ret void
}

; Function Attrs: mustprogress uwtable
define void @_ZN8QuantLib19AnalyticHaganPricerC2ERKNS_6HandleINS_27SwaptionVolatilityStructureEEENS_16GFunctionFactory15YieldCurveModelERKNS1_INS_5QuoteEEE(ptr noundef nonnull align 8 dereferenceable(200) %this, ptr noundef %vtt, ptr noundef nonnull align 8 dereferenceable(16) %swaptionVol, i32 noundef %modelOfYieldCurve, ptr noundef nonnull align 8 dereferenceable(16) %meanReversion) unnamed_addr #2 align 2 personality ptr @__gxx_personality_v0 {
entry:
  %this.addr = alloca ptr, align 8
  %vtt.addr = alloca ptr, align 8
  %swaptionVol.addr = alloca ptr, align 8
  %modelOfYieldCurve.addr = alloca i32, align 4
  %meanReversion.addr = alloca ptr, align 8
  %agg.tmp = alloca %"class.QuantLib::Handle", align 8
  %exn.slot = alloca ptr, align 8
  %ehselector.slot = alloca i32, align 4
  store ptr %this, ptr %this.addr, align 8, !tbaa !3
  store ptr %vtt, ptr %vtt.addr, align 8, !tbaa !3
  store ptr %swaptionVol, ptr %swaptionVol.addr, align 8, !tbaa !3
  store i32 %modelOfYieldCurve, ptr %modelOfYieldCurve.addr, align 4, !tbaa !42
  store ptr %meanReversion, ptr %meanReversion.addr, align 8, !tbaa !3
  %this1 = load ptr, ptr %this.addr, align 8
  %vtt2 = load ptr, ptr %vtt.addr, align 8
  %0 = load ptr, ptr %swaptionVol.addr, align 8, !tbaa !3
  %1 = load i32, ptr %modelOfYieldCurve.addr, align 4, !tbaa !42
  %2 = load ptr, ptr %meanReversion.addr, align 8, !tbaa !3
  call void @_ZN8QuantLib6HandleINS_5QuoteEEC2ERKS2_(ptr noundef nonnull align 8 dereferenceable(16) %agg.tmp, ptr noundef nonnull align 8 dereferenceable(16) %2) #18
  %3 = getelementptr inbounds ptr, ptr %vtt2, i64 1
  invoke void @_ZN8QuantLib11HaganPricerC2ERKNS_6HandleINS_27SwaptionVolatilityStructureEEENS_16GFunctionFactory15YieldCurveModelENS1_INS_5QuoteEEE(ptr noundef nonnull align 8 dereferenceable(200) %this1, ptr noundef %3, ptr noundef nonnull align 8 dereferenceable(16) %0, i32 noundef %1, ptr noundef %agg.tmp)
          to label %invoke.cont unwind label %lpad

invoke.cont:                                      ; preds = %entry
  call void @_ZN8QuantLib6HandleINS_5QuoteEED2Ev(ptr noundef nonnull align 8 dereferenceable(16) %agg.tmp) #18
  %4 = load ptr, ptr %vtt2, align 8
  store ptr %4, ptr %this1, align 8, !tbaa !12
  %5 = getelementptr inbounds ptr, ptr %vtt2, i64 10
  %6 = load ptr, ptr %5, align 8
  %vtable = load ptr, ptr %this1, align 8, !tbaa !12
  %vbase.offset.ptr = getelementptr i8, ptr %vtable, i64 -24
  %vbase.offset = load i64, ptr %vbase.offset.ptr, align 8
  %add.ptr = getelementptr inbounds i8, ptr %this1, i64 %vbase.offset
  store ptr %6, ptr %add.ptr, align 8, !tbaa !12
  %7 = getelementptr inbounds ptr, ptr %vtt2, i64 11
  %8 = load ptr, ptr %7, align 8
  %vtable3 = load ptr, ptr %this1, align 8, !tbaa !12
  %vbase.offset.ptr4 = getelementptr i8, ptr %vtable3, i64 -32
  %vbase.offset5 = load i64, ptr %vbase.offset.ptr4, align 8
  %add.ptr6 = getelementptr inbounds i8, ptr %this1, i64 %vbase.offset5
  store ptr %8, ptr %add.ptr6, align 8, !tbaa !12
  %add.ptr7 = getelementptr inbounds i8, ptr %this1, i64 24
  store ptr getelementptr inbounds inrange(-16, 32) ({ [17 x ptr], [6 x ptr], [9 x ptr], [5 x ptr] }, ptr @_ZTVN8QuantLib19AnalyticHaganPricerE, i32 0, i32 1, i32 2), ptr %add.ptr7, align 8, !tbaa !12
  ret void

lpad:                                             ; preds = %entry
  %9 = landingpad { ptr, i32 }
          cleanup
  %10 = extractvalue { ptr, i32 } %9, 0
  store ptr %10, ptr %exn.slot, align 8
  %11 = extractvalue { ptr, i32 } %9, 1
  store i32 %11, ptr %ehselector.slot, align 4
  call void @_ZN8QuantLib6HandleINS_5QuoteEED2Ev(ptr noundef nonnull align 8 dereferenceable(16) %agg.tmp) #18
  br label %eh.resume

eh.resume:                                        ; preds = %lpad
  %exn = load ptr, ptr %exn.slot, align 8
  %sel = load i32, ptr %ehselector.slot, align 4
  %lpad.val = insertvalue { ptr, i32 } poison, ptr %exn, 0
  %lpad.val8 = insertvalue { ptr, i32 } %lpad.val, i32 %sel, 1
  resume { ptr, i32 } %lpad.val8
}